target datalayout = "e-m:e-p270:32:32-p271:32:32-p272:64:64-i64:64-i128:128-f80:128-n8:16:32:64-S128"
target triple = "x86_64-pc-linux-gnu"

%struct.Type_ = type { i32, ptr, ptr, ptr, %union.anon, ptr, ptr, %union.anon.1 }
%union.anon = type { ptr }
%union.anon.1 = type { %struct.TypeFunction }
%struct.TypeFunction = type { ptr, ptr, ptr }
%union.SourceSpan = type { i64 }
%struct.Decl_ = type { ptr, ptr, %union.SourceSpan, i64, %union.anon.3, i32, %union.anon.4, i64, ptr, ptr, ptr, %union.anon.5 }
%union.anon.3 = type { ptr }
%union.anon.4 = type { i16 }
%union.anon.5 = type { %struct.FuncDecl }
%struct.FuncDecl = type { i32, [4 x i8], %struct.Signature_, i32, i32, %union.anon.12 }
%struct.Signature_ = type <{ %struct.CalleeAttributes, i16, i8, i32, i32, [4 x i8], ptr }>
%struct.CalleeAttributes = type { i8 }
%union.anon.12 = type { %struct.anon.13 }
%struct.anon.13 = type { i16, %union.anon.14 }
%union.anon.14 = type { ptr }
%struct.TypeArray = type { ptr, i32 }
%struct.anon.6 = type { ptr, ptr, %union.anon.7 }
%union.anon.7 = type { %struct.BitStructDecl }
%struct.BitStructDecl = type { ptr, ptr, i8 }
%struct.TypeInfo_ = type { i16, ptr, %union.SourceSpan, %union.anon.54 }
%union.anon.54 = type { %struct.anon.55 }
%struct.anon.55 = type { ptr, ptr }

@.str = private unnamed_addr constant [36 x i8] c"FATAL ERROR %s -> in %s @ in %s:%d \00", align 1
@.str.17 = private unnamed_addr constant [22 x i8] c"Should be unreachable\00", align 1
@__func__.type_flatten = private unnamed_addr constant [13 x i8] c"type_flatten\00", align 1
@.str.54 = private unnamed_addr constant [118 x i8] c"generated/home/dtcxzyw/WorkSpace/Projects/compilers/llvm-opt-benchmark/bench/c3c/c3c/src/compiler/compiler_internal.h\00", align 1

; Function Attrs: nounwind uwtable
define internal ptr @type_flatten(ptr noundef %0) #0 {
  %2 = alloca ptr, align 8
  store ptr %0, ptr %2, align 8
  br label %3

3:                                                ; preds = %28, %1
  %4 = load ptr, ptr %2, align 8
  %5 = getelementptr inbounds %struct.Type_, ptr %4, i32 0, i32 1
  %6 = load ptr, ptr %5, align 8
  store ptr %6, ptr %2, align 8
  %7 = load ptr, ptr %2, align 8
  %8 = getelementptr inbounds %struct.Type_, ptr %7, i32 0, i32 0
  %9 = load i32, ptr %8, align 8
  switch i32 %9, label %26 [
    i32 32, label %10
    i32 40, label %19
    i32 31, label %23
  ]

10:                                               ; preds = %3
  %11 = load ptr, ptr %2, align 8
  %12 = getelementptr inbounds %struct.Type_, ptr %11, i32 0, i32 7
  %13 = load ptr, ptr %12, align 8
  %14 = getelementptr inbounds %struct.Decl_, ptr %13, i32 0, i32 11
  %15 = getelementptr inbounds %struct.anon.6, ptr %14, i32 0, i32 2
  %16 = load ptr, ptr %15, align 8
  %17 = getelementptr inbounds %struct.TypeInfo_, ptr %16, i32 0, i32 1
  %18 = load ptr, ptr %17, align 8
  store ptr %18, ptr %2, align 8
  br label %28

19:                                               ; preds = %3
  %20 = load ptr, ptr %2, align 8
  %21 = getelementptr inbounds %struct.Type_, ptr %20, i32 0, i32 7
  %22 = load ptr, ptr %21, align 8
  store ptr %22, ptr %2, align 8
  br label %28

23:                                               ; preds = %3
  br label %24

24:                                               ; preds = %23
  call void (ptr, ...) @error_exit(ptr noundef @.str, ptr noundef @.str.17, ptr noundef @__func__.type_flatten, ptr noundef @.str.54, i32 noundef 2984) #7
  unreachable

25:                                               ; No predecessors!
  br label %26

26:                                               ; preds = %25, %3
  %27 = load ptr, ptr %2, align 8
  ret ptr %27

28:                                               ; preds = %19, %10
  br label %3
}

; Function Attrs: nounwind uwtable
define dso_local zeroext i1 @type_flat_is_numlike(ptr noundef %0) #0 {
  %2 = alloca ptr, align 8
  %3 = alloca i32, align 4
  store ptr %0, ptr %2, align 8
  %4 = load ptr, ptr %2, align 8
  %5 = call ptr @type_flatten(ptr noundef %4)
  store ptr %5, ptr %2, align 8
  %6 = load ptr, ptr %2, align 8
  %7 = getelementptr inbounds %struct.Type_, ptr %6, i32 0, i32 0
  %8 = load i32, ptr %7, align 8
  %9 = icmp eq i32 %8, 37
  br i1 %9, label %10, label %15

10:                                               ; preds = %1
  %11 = load ptr, ptr %2, align 8
  %12 = getelementptr inbounds %struct.Type_, ptr %11, i32 0, i32 7
  %13 = getelementptr inbounds %struct.TypeArray, ptr %12, i32 0, i32 0
  %14 = load ptr, ptr %13, align 8
  store ptr %14, ptr %2, align 8
  br label %15

15:                                               ; preds = %10, %1
  %16 = load ptr, ptr %2, align 8
  %17 = getelementptr inbounds %struct.Type_, ptr %16, i32 0, i32 0
  %18 = load i32, ptr %17, align 8
  store i32 %18, ptr %3, align 4
  %19 = load i32, ptr %3, align 4
  %20 = icmp uge i32 %19, 3
  br i1 %20, label %21, label %24

21:                                               ; preds = %15
  %22 = load i32, ptr %3, align 4
  %23 = icmp ule i32 %22, 17
  br label %24

24:                                               ; preds = %21, %15
  %25 = phi i1 [ false, %15 ], [ %23, %21 ]
  ret i1 %25
}