; Function Attrs: nounwind uwtable
define dso_local zeroext i1 @type_flat_is_numlike(ptr nocapture noundef readonly %0) local_unnamed_addr #0 {
  br label %2

2:                                                ; preds = %15, %1
  %.0.i = phi ptr [ %0, %1 ], [ %.1.i, %15 ]
  %3 = getelementptr inbounds i8, ptr %.0.i, i64 8
  %4 = load ptr, ptr %3, align 8
  %5 = load i32, ptr %4, align 8
  switch i32 %5, label %.loopexit [
    i32 32, label %6
    i32 40, label %12
    i32 31, label %14
    i32 37, label %16
  ]

6:                                                ; preds = %2
  %7 = getelementptr inbounds i8, ptr %4, i64 56
  %8 = load ptr, ptr %7, align 8
  %9 = getelementptr inbounds i8, ptr %8, i64 96
  %10 = load ptr, ptr %9, align 8
  %11 = getelementptr inbounds i8, ptr %10, i64 8
  br label %15

12:                                               ; preds = %2
  %13 = getelementptr inbounds i8, ptr %4, i64 56
  br label %15

14:                                               ; preds = %2
  tail call void (ptr, ...) @error_exit(ptr noundef nonnull @.str, ptr noundef nonnull @.str.17, ptr noundef nonnull @__func__.type_flatten, ptr noundef nonnull @.str.54, i32 noundef 2984) #13
  unreachable

15:                                               ; preds = %12, %6
  %.1.in.i = phi ptr [ %13, %12 ], [ %11, %6 ]
  %.1.i = load ptr, ptr %.1.in.i, align 8
  br label %2

16:                                               ; preds = %2
  %17 = getelementptr inbounds i8, ptr %4, i64 56
  %18 = load ptr, ptr %17, align 8
  %.pre = load i32, ptr %18, align 8
  br label %.loopexit

.loopexit:                                        ; preds = %2, %16
  %19 = phi i32 [ %.pre, %16 ], [ %5, %2 ]
  %20 = add i32 %19, -3
  %21 = icmp ult i32 %20, 15
  ret i1 %21
}